target datalayout = "e-m:e-p270:32:32-p271:32:32-p272:64:64-i64:64-i128:128-f80:128-n8:16:32:64-S128"
target triple = "x86_64-pc-linux-gnu"

%struct.true_false_string = type { ptr, ptr }
%struct._address = type { i32, i32, ptr, ptr }
%struct.pfcp_session_args = type { ptr, ptr, i64, %struct._address, i8, %struct.pfcp_rule_ids }
%struct.pfcp_rule_ids = type { i32, i32, i32, i32, i32, i32, i32 }

@pfcp_id_predef_dynamic_tfs = internal constant %struct.true_false_string { ptr @.str.2394, ptr @.str.2395 }, align 8
@.str.2649 = private unnamed_addr constant [13 x i8] c"[Grouped IE]\00", align 1
@.str.2652 = private unnamed_addr constant [16 x i8] c": QER ID: %s %u\00", align 1

; Function Attrs: null_pointer_is_valid sspstrong uwtable
define internal void @dissect_pfcp_grouped_ie(ptr noundef %0, ptr noundef %1, ptr noundef %2, ptr noundef %3, i16 noundef zeroext %4, i8 noundef zeroext %5, ptr noundef %6) #0 {
  %8 = alloca ptr, align 8
  %9 = alloca ptr, align 8
  %10 = alloca ptr, align 8
  %11 = alloca ptr, align 8
  %12 = alloca i16, align 2
  %13 = alloca i8, align 1
  %14 = alloca ptr, align 8
  store ptr %0, ptr %8, align 8
  store ptr %1, ptr %9, align 8
  store ptr %2, ptr %10, align 8
  store ptr %3, ptr %11, align 8
  store i16 %4, ptr %12, align 2
  store i8 %5, ptr %13, align 1
  store ptr %6, ptr %14, align 8
  %15 = load ptr, ptr %11, align 8
  call void (ptr, ptr, ...) @proto_item_append_text(ptr noundef %15, ptr noundef @.str.2649)
  %16 = load ptr, ptr %8, align 8
  %17 = load ptr, ptr %9, align 8
  %18 = load ptr, ptr %10, align 8
  %19 = load i16, ptr %12, align 2
  %20 = load i8, ptr %13, align 1
  %21 = load ptr, ptr %14, align 8
  call void @dissect_pfcp_ies_common(ptr noundef %16, ptr noundef %17, ptr noundef %18, i32 noundef 0, i16 noundef zeroext %19, i8 noundef zeroext %20, ptr noundef %21)
  ret void
}

; Function Attrs: null_pointer_is_valid sspstrong uwtable
define internal void @dissect_pfcp_create_qer(ptr noundef %0, ptr noundef %1, ptr noundef %2, ptr noundef %3, i16 noundef zeroext %4, i8 noundef zeroext %5, ptr noundef %6) #0 {
  %8 = alloca ptr, align 8
  %9 = alloca ptr, align 8
  %10 = alloca ptr, align 8
  %11 = alloca ptr, align 8
  %12 = alloca i16, align 2
  %13 = alloca i8, align 1
  %14 = alloca ptr, align 8
  store ptr %0, ptr %8, align 8
  store ptr %1, ptr %9, align 8
  store ptr %2, ptr %10, align 8
  store ptr %3, ptr %11, align 8
  store i16 %4, ptr %12, align 2
  store i8 %5, ptr %13, align 1
  store ptr %6, ptr %14, align 8
  %15 = load ptr, ptr %8, align 8
  %16 = load ptr, ptr %9, align 8
  %17 = load ptr, ptr %10, align 8
  %18 = load ptr, ptr %11, align 8
  %19 = load i16, ptr %12, align 2
  %20 = load i8, ptr %13, align 1
  %21 = load ptr, ptr %14, align 8
  call void @dissect_pfcp_grouped_ie(ptr noundef %15, ptr noundef %16, ptr noundef %17, ptr noundef %18, i16 noundef zeroext %19, i8 noundef zeroext %20, ptr noundef %21)
  %22 = load ptr, ptr %11, align 8
  %23 = load ptr, ptr %14, align 8
  %24 = getelementptr inbounds nuw %struct.pfcp_session_args, ptr %23, i32 0, i32 5
  %25 = getelementptr inbounds nuw %struct.pfcp_rule_ids, ptr %24, i32 0, i32 2
  %26 = load i32, ptr %25, align 4
  %27 = and i32 %26, -2147483648
  %28 = icmp ne i32 %27, 0
  %29 = call ptr @tfs_get_string(i1 noundef zeroext %28, ptr noundef @pfcp_id_predef_dynamic_tfs)
  %30 = load ptr, ptr %14, align 8
  %31 = getelementptr inbounds nuw %struct.pfcp_session_args, ptr %30, i32 0, i32 5
  %32 = getelementptr inbounds nuw %struct.pfcp_rule_ids, ptr %31, i32 0, i32 2
  %33 = load i32, ptr %32, align 4
  %34 = and i32 %33, 2147483647
  call void (ptr, ptr, ...) @proto_item_append_text(ptr noundef %22, ptr noundef @.str.2652, ptr noundef %29, i32 noundef %34)
  ret void
}